target datalayout = "e-m:e-p270:32:32-p271:32:32-p272:64:64-i64:64-i128:128-f80:128-n8:16:32:64-S128"
target triple = "x86_64-pc-linux-gnu"

%struct.wl_list = type { ptr, ptr }
%struct.SDL_WindowData = type { ptr, ptr, ptr, ptr, ptr, ptr, ptr, %union.anon, i32, i32, i32, i32, ptr, ptr, ptr, ptr, ptr, ptr, ptr, ptr, ptr, ptr, ptr, ptr, ptr, ptr, %struct.SDL_AtomicInt, ptr, i32, ptr, double, ptr, i32, i32, i32, i32, %struct.anon.3, %struct.anon.4, %struct.anon.5, %struct.anon.6, %struct.anon.7, %struct.anon.8, %struct.anon.9, i32, i32, i32, i64, i32, i32, i8, i8, i8, i8, i8, i8, i8, i8, i8, i8, i8, i8, i8, i8, i32, %struct.wl_list }
%union.anon = type { %struct.anon }
%struct.anon = type { ptr, %union.anon.0, i8 }
%union.anon.0 = type { %struct.anon.2 }
%struct.anon.2 = type { ptr, ptr }
%struct.SDL_AtomicInt = type { i32 }
%struct.anon.3 = type { double, double }
%struct.anon.4 = type { i32, i32, i32, i32 }
%struct.anon.5 = type { i32, i32, i32, i32 }
%struct.anon.6 = type { i32, i32 }
%struct.anon.7 = type { i32, i32 }
%struct.anon.8 = type { i32, i32 }
%struct.anon.9 = type { i32, i32, i8 }

@SDL_WAYLAND_surface_tag = internal global ptr @.str.2, align 8
@WAYLAND_wl_proxy_get_tag = external global ptr, align 8
@external_window_list = internal global %struct.wl_list zeroinitializer, align 8
@WAYLAND_wl_list_empty = external global ptr, align 8
@WAYLAND_wl_proxy_get_user_data = external global ptr, align 8

; Function Attrs: inlinehint nounwind uwtable
define internal ptr @wl_surface_get_user_data(ptr noundef %0) #1 {
  %2 = alloca ptr, align 8
  store ptr %0, ptr %2, align 8
  %3 = load ptr, ptr @WAYLAND_wl_proxy_get_user_data, align 8
  %4 = load ptr, ptr %2, align 8
  %5 = call ptr %3(ptr noundef %4)
  ret ptr %5
}

; Function Attrs: nounwind uwtable
define hidden zeroext i1 @SDL_WAYLAND_own_surface(ptr noundef %0) #0 {
  %2 = alloca ptr, align 8
  store ptr %0, ptr %2, align 8
  %3 = load ptr, ptr @WAYLAND_wl_proxy_get_tag, align 8
  %4 = load ptr, ptr %2, align 8
  %5 = call ptr %3(ptr noundef %4)
  %6 = icmp eq ptr %5, @SDL_WAYLAND_surface_tag
  ret i1 %6
}

; Function Attrs: nounwind uwtable
define hidden ptr @Wayland_GetWindowDataForOwnedSurface(ptr noundef %0) #0 {
  %2 = alloca ptr, align 8
  %3 = alloca ptr, align 8
  %4 = alloca ptr, align 8
  %5 = alloca i32, align 4
  store ptr %0, ptr %3, align 8
  %6 = load ptr, ptr %3, align 8
  %7 = call zeroext i1 @SDL_WAYLAND_own_surface(ptr noundef %6)
  br i1 %7, label %8, label %11

8:                                                ; preds = %1
  %9 = load ptr, ptr %3, align 8
  %10 = call ptr @wl_surface_get_user_data(ptr noundef %9)
  store ptr %10, ptr %2, align 8
  br label %43

11:                                               ; preds = %1
  %12 = load ptr, ptr @WAYLAND_wl_list_empty, align 8
  %13 = call i32 %12(ptr noundef @external_window_list)
  %14 = icmp ne i32 %13, 0
  br i1 %14, label %41, label %15

15:                                               ; preds = %11
  call void @llvm.lifetime.start.p0(i64 8, ptr %4) #8
  %16 = load ptr, ptr getelementptr inbounds nuw (%struct.wl_list, ptr @external_window_list, i32 0, i32 1), align 8
  %17 = getelementptr inbounds i8, ptr %16, i64 -416
  store ptr %17, ptr %4, align 8
  br label %18

18:                                               ; preds = %31, %15
  %19 = load ptr, ptr %4, align 8
  %20 = getelementptr inbounds nuw %struct.SDL_WindowData, ptr %19, i32 0, i32 64
  %21 = icmp ne ptr %20, @external_window_list
  br i1 %21, label %22, label %37

22:                                               ; preds = %18
  %23 = load ptr, ptr %4, align 8
  %24 = getelementptr inbounds nuw %struct.SDL_WindowData, ptr %23, i32 0, i32 2
  %25 = load ptr, ptr %24, align 8
  %26 = load ptr, ptr %3, align 8
  %27 = icmp eq ptr %25, %26
  br i1 %27, label %28, label %30

28:                                               ; preds = %22
  %29 = load ptr, ptr %4, align 8
  store ptr %29, ptr %2, align 8
  store i32 1, ptr %5, align 4
  br label %38

30:                                               ; preds = %22
  br label %31

31:                                               ; preds = %30
  %32 = load ptr, ptr %4, align 8
  %33 = getelementptr inbounds nuw %struct.SDL_WindowData, ptr %32, i32 0, i32 64
  %34 = getelementptr inbounds nuw %struct.wl_list, ptr %33, i32 0, i32 1
  %35 = load ptr, ptr %34, align 8
  %36 = getelementptr inbounds i8, ptr %35, i64 -416
  store ptr %36, ptr %4, align 8
  br label %18, !llvm.loop !3

37:                                               ; preds = %18
  store i32 0, ptr %5, align 4
  br label %38

38:                                               ; preds = %37, %28
  call void @llvm.lifetime.end.p0(i64 8, ptr %4) #8
  %39 = load i32, ptr %5, align 4
  switch i32 %39, label %45 [
    i32 0, label %40
    i32 1, label %43
  ]

40:                                               ; preds = %38
  br label %41

41:                                               ; preds = %40, %11
  br label %42

42:                                               ; preds = %41
  store ptr null, ptr %2, align 8
  br label %43

43:                                               ; preds = %42, %38, %8
  %44 = load ptr, ptr %2, align 8
  ret ptr %44

45:                                               ; preds = %38
  unreachable
}