; Function Attrs: nounwind uwtable
define hidden ptr @Wayland_GetWindowDataForOwnedSurface(ptr noundef %0) local_unnamed_addr #0 {
  %2 = load ptr, ptr @WAYLAND_wl_proxy_get_tag, align 8
  %3 = tail call ptr %2(ptr noundef %0) #12
  %4 = icmp eq ptr %3, @SDL_WAYLAND_surface_tag
  br i1 %4, label %5, label %8

5:                                                ; preds = %1
  %6 = load ptr, ptr @WAYLAND_wl_proxy_get_user_data, align 8
  %7 = tail call ptr %6(ptr noundef %0) #12
  br label %.thread

8:                                                ; preds = %1
  %9 = load ptr, ptr @WAYLAND_wl_list_empty, align 8
  %10 = tail call i32 %9(ptr noundef nonnull @external_window_list) #12
  %.not = icmp ne i32 %10, 0
  %.pn15 = load ptr, ptr getelementptr inbounds nuw (i8, ptr @external_window_list, i64 8), align 8
  %.not11.not16 = icmp eq ptr %.pn15, @external_window_list
  %or.cond = select i1 %.not, i1 true, i1 %.not11.not16
  br i1 %or.cond, label %.thread, label %.lr.ph

.lr.ph:                                           ; preds = %8, %14
  %.pn17 = phi ptr [ %.pn, %14 ], [ %.pn15, %8 ]
  %11 = getelementptr inbounds i8, ptr %.pn17, i64 -400
  %12 = load ptr, ptr %11, align 8
  %13 = icmp eq ptr %12, %0
  br i1 %13, label %.thread.loopexit.split.loop.exit, label %14

14:                                               ; preds = %.lr.ph
  %15 = getelementptr inbounds nuw i8, ptr %.pn17, i64 8
  %.pn = load ptr, ptr %15, align 8
  %.not11.not = icmp eq ptr %.pn, @external_window_list
  br i1 %.not11.not, label %.thread, label %.lr.ph, !llvm.loop !3

.thread.loopexit.split.loop.exit:                 ; preds = %.lr.ph
  %.08.le = getelementptr inbounds i8, ptr %.pn17, i64 -416
  br label %.thread

.thread:                                          ; preds = %14, %.thread.loopexit.split.loop.exit, %8, %5
  %.09 = phi ptr [ %7, %5 ], [ null, %8 ], [ %.08.le, %.thread.loopexit.split.loop.exit ], [ null, %14 ]
  ret ptr %.09
}